target datalayout = "e-m:e-p270:32:32-p271:32:32-p272:64:64-i64:64-i128:128-f80:128-n8:16:32:64-S128"
target triple = "x86_64-pc-linux-gnu"

@.str.4 = private unnamed_addr constant [3 x i8] c"%c\00", align 1

; Function Attrs: nounwind uwtable
define void @Extra_PrintBinary__(ptr noundef %0, ptr noundef %1, i32 noundef %2) #0 {
  %4 = alloca ptr, align 8
  %5 = alloca ptr, align 8
  %6 = alloca i32, align 4
  %7 = alloca i32, align 4
  %8 = alloca i32, align 4
  %9 = alloca i32, align 4
  %10 = alloca i32, align 4
  store ptr %0, ptr %4, align 8, !tbaa !57
  store ptr %1, ptr %5, align 8, !tbaa !55
  store i32 %2, ptr %6, align 4, !tbaa !20
  call void @llvm.lifetime.start.p0(i64 4, ptr %7) #9
  call void @llvm.lifetime.start.p0(i64 4, ptr %8) #9
  call void @llvm.lifetime.start.p0(i64 4, ptr %9) #9
  call void @llvm.lifetime.start.p0(i64 4, ptr %10) #9
  %11 = load i32, ptr %6, align 4, !tbaa !20
  %12 = sext i32 %11 to i64
  %13 = urem i64 %12, 32
  %14 = trunc i64 %13 to i32
  store i32 %14, ptr %7, align 4, !tbaa !20
  %15 = load i32, ptr %6, align 4, !tbaa !20
  %16 = sext i32 %15 to i64
  %17 = udiv i64 %16, 32
  %18 = load i32, ptr %7, align 4, !tbaa !20
  %19 = icmp sgt i32 %18, 0
  %20 = zext i1 %19 to i32
  %21 = sext i32 %20 to i64
  %22 = add i64 %17, %21
  %23 = trunc i64 %22 to i32
  store i32 %23, ptr %8, align 4, !tbaa !20
  %24 = load i32, ptr %8, align 4, !tbaa !20
  %25 = sub nsw i32 %24, 1
  store i32 %25, ptr %9, align 4, !tbaa !20
  br label %26

26:                                               ; preds = %64, %3
  %27 = load i32, ptr %9, align 4, !tbaa !20
  %28 = icmp sge i32 %27, 0
  br i1 %28, label %29, label %67

29:                                               ; preds = %26
  %30 = load i32, ptr %9, align 4, !tbaa !20
  %31 = load i32, ptr %8, align 4, !tbaa !20
  %32 = sub nsw i32 %31, 1
  %33 = icmp eq i32 %30, %32
  br i1 %33, label %34, label %40

34:                                               ; preds = %29
  %35 = load i32, ptr %7, align 4, !tbaa !20
  %36 = icmp ne i32 %35, 0
  br i1 %36, label %37, label %40

37:                                               ; preds = %34
  %38 = load i32, ptr %7, align 4, !tbaa !20
  %39 = sub nsw i32 %38, 1
  br label %41

40:                                               ; preds = %34, %29
  br label %41

41:                                               ; preds = %40, %37
  %42 = phi i32 [ %39, %37 ], [ 31, %40 ]
  store i32 %42, ptr %10, align 4, !tbaa !20
  br label %43

43:                                               ; preds = %60, %41
  %44 = load i32, ptr %10, align 4, !tbaa !20
  %45 = icmp sge i32 %44, 0
  br i1 %45, label %46, label %63

46:                                               ; preds = %43
  %47 = load ptr, ptr %4, align 8, !tbaa !57
  %48 = load ptr, ptr %5, align 8, !tbaa !55
  %49 = load i32, ptr %9, align 4, !tbaa !20
  %50 = sext i32 %49 to i64
  %51 = getelementptr inbounds i32, ptr %48, i64 %50
  %52 = load i32, ptr %51, align 4, !tbaa !20
  %53 = load i32, ptr %10, align 4, !tbaa !20
  %54 = shl i32 1, %53
  %55 = and i32 %52, %54
  %56 = icmp ugt i32 %55, 0
  %57 = zext i1 %56 to i32
  %58 = add nsw i32 48, %57
  %59 = call i32 (ptr, ptr, ...) @fprintf(ptr noundef %47, ptr noundef @.str.4, i32 noundef %58) #9
  br label %60

60:                                               ; preds = %46
  %61 = load i32, ptr %10, align 4, !tbaa !20
  %62 = add nsw i32 %61, -1
  store i32 %62, ptr %10, align 4, !tbaa !20
  br label %43, !llvm.loop !58

63:                                               ; preds = %43
  br label %64

64:                                               ; preds = %63
  %65 = load i32, ptr %9, align 4, !tbaa !20
  %66 = add nsw i32 %65, -1
  store i32 %66, ptr %9, align 4, !tbaa !20
  br label %26, !llvm.loop !59

67:                                               ; preds = %26
  call void @llvm.lifetime.end.p0(i64 4, ptr %10) #9
  call void @llvm.lifetime.end.p0(i64 4, ptr %9) #9
  call void @llvm.lifetime.end.p0(i64 4, ptr %8) #9
  call void @llvm.lifetime.end.p0(i64 4, ptr %7) #9
  ret void
}