; Function Attrs: nofree nounwind uwtable
define void @Extra_PrintBinary__(ptr noundef captures(none) %0, ptr noundef readonly captures(none) %1, i32 noundef %2) local_unnamed_addr #10 {
  %4 = sext i32 %2 to i64
  %5 = and i32 %2, 31
  %6 = lshr i64 %4, 5
  %7 = icmp ne i32 %5, 0
  %8 = zext i1 %7 to i64
  %9 = add nuw nsw i64 %6, %8
  %10 = trunc i64 %9 to i32
  %11 = icmp sgt i32 %10, 0
  br i1 %11, label %.lr.ph19, label %._crit_edge

.lr.ph19:                                         ; preds = %3
  %12 = add nuw nsw i64 %9, 4294967295
  %13 = add nsw i32 %5, -1
  %14 = and i64 %12, 4294967295
  br i1 %7, label %.lr.ph19.split, label %.lr.ph.us

.lr.ph.us:                                        ; preds = %.lr.ph19, %select.unfold._crit_edge.us
  %indvars.iv = phi i64 [ %indvars.iv.next, %select.unfold._crit_edge.us ], [ %14, %.lr.ph19 ]
  %15 = getelementptr inbounds nuw i32, ptr %1, i64 %indvars.iv
  br label %select.unfold.us

select.unfold.us:                                 ; preds = %.lr.ph.us, %select.unfold.us
  %.017.us = phi i32 [ 31, %.lr.ph.us ], [ %20, %select.unfold.us ]
  %16 = load i32, ptr %15, align 4, !tbaa !24
  %17 = lshr i32 %16, %.017.us
  %18 = and i32 %17, 1
  %19 = or disjoint i32 %18, 48
  %fputc.us = tail call i32 @fputc(i32 %19, ptr %0)
  %20 = add nsw i32 %.017.us, -1
  %.not = icmp eq i32 %.017.us, 0
  br i1 %.not, label %select.unfold._crit_edge.us, label %select.unfold.us, !llvm.loop !51

select.unfold._crit_edge.us:                      ; preds = %select.unfold.us
  %indvars.iv.next = add nsw i64 %indvars.iv, -1
  %21 = icmp sgt i64 %indvars.iv, 0
  br i1 %21, label %.lr.ph.us, label %._crit_edge, !llvm.loop !52

.lr.ph19.split:                                   ; preds = %.lr.ph19, %select.unfold._crit_edge
  %indvars.iv22 = phi i64 [ %indvars.iv.next23, %select.unfold._crit_edge ], [ %14, %.lr.ph19 ]
  %22 = icmp eq i64 %indvars.iv22, %14
  %23 = getelementptr inbounds nuw i32, ptr %1, i64 %indvars.iv22
  %spec.select = select i1 %22, i32 %13, i32 31
  br label %select.unfold

select.unfold:                                    ; preds = %.lr.ph19.split, %select.unfold
  %.017 = phi i32 [ %28, %select.unfold ], [ %spec.select, %.lr.ph19.split ]
  %24 = load i32, ptr %23, align 4, !tbaa !24
  %25 = lshr i32 %24, %.017
  %26 = and i32 %25, 1
  %27 = or disjoint i32 %26, 48
  %fputc = tail call i32 @fputc(i32 %27, ptr %0)
  %28 = add nsw i32 %.017, -1
  %29 = icmp sgt i32 %.017, 0
  br i1 %29, label %select.unfold, label %select.unfold._crit_edge, !llvm.loop !51

select.unfold._crit_edge:                         ; preds = %select.unfold
  %indvars.iv.next23 = add nsw i64 %indvars.iv22, -1
  %30 = icmp sgt i64 %indvars.iv22, 0
  br i1 %30, label %.lr.ph19.split, label %._crit_edge, !llvm.loop !52

._crit_edge:                                      ; preds = %select.unfold._crit_edge.us, %select.unfold._crit_edge, %3
  ret void
}